; ModuleID = 'source-C-CXX/30/2009.c'
source_filename = "source-C-CXX/30/2009.c"
target datalayout = "e-m:e-p270:32:32-p271:32:32-p272:64:64-i64:64-f80:128-n8:16:32:64-S128"
target triple = "x86_64-pc-linux-gnu"

%struct.student = type { [60 x i8], %struct.student* }

@.str = private unnamed_addr constant [4 x i8] c"end\00", align 1

; Function Attrs: nounwind sspstrong uwtable
define dso_local %struct.student* @creat() local_unnamed_addr #0 {
  %1 = tail call noalias align 16 dereferenceable_or_null(100) i8* @malloc(i64 100) #6
  %2 = bitcast i8* %1 to %struct.student*
  %3 = getelementptr inbounds %struct.student, %struct.student* %2, i64 0, i32 1
  store %struct.student* null, %struct.student** %3, align 16, !tbaa !5
  %4 = getelementptr inbounds %struct.student, %struct.student* %2, i64 0, i32 0, i64 0
  %5 = tail call i32 (i8*, ...) bitcast (i32 (...)* @gets to i32 (i8*, ...)*)(i8* %4) #6
  %6 = tail call i32 @strcmp(i8* noundef nonnull dereferenceable(1) %4, i8* noundef nonnull dereferenceable(4) getelementptr inbounds ([4 x i8], [4 x i8]* @.str, i64 0, i64 0)) #7
  %7 = icmp eq i32 %6, 0
  br i1 %7, label %19, label %8

8:                                                ; preds = %0, %8
  %9 = phi %struct.student* [ %11, %8 ], [ %2, %0 ]
  %10 = tail call noalias align 16 dereferenceable_or_null(100) i8* @malloc(i64 100) #6
  %11 = bitcast i8* %10 to %struct.student*
  %12 = getelementptr inbounds %struct.student, %struct.student* %11, i64 0, i32 0, i64 0
  %13 = tail call i32 (i8*, ...) bitcast (i32 (...)* @gets to i32 (i8*, ...)*)(i8* %12) #6
  %14 = getelementptr inbounds %struct.student, %struct.student* %11, i64 0, i32 1
  store %struct.student* %9, %struct.student** %14, align 16, !tbaa !5
  %15 = tail call i32 @strcmp(i8* noundef nonnull dereferenceable(1) %12, i8* noundef nonnull dereferenceable(4) getelementptr inbounds ([4 x i8], [4 x i8]* @.str, i64 0, i64 0)) #7
  %16 = icmp eq i32 %15, 0
  br i1 %16, label %17, label %8, !llvm.loop !10

17:                                               ; preds = %8
  %18 = bitcast i8* %10 to %struct.student*
  br label %19

19:                                               ; preds = %17, %0
  %20 = phi %struct.student* [ %2, %0 ], [ %18, %17 ]
  ret %struct.student* %20
}

; Function Attrs: inaccessiblememonly mustprogress nofree nounwind willreturn
declare noalias noundef align 16 i8* @malloc(i64 noundef) local_unnamed_addr #1

declare i32 @gets(...) local_unnamed_addr #2

; Function Attrs: argmemonly mustprogress nofree nounwind readonly willreturn
declare i32 @strcmp(i8* nocapture, i8* nocapture) local_unnamed_addr #3

; Function Attrs: nofree nounwind sspstrong uwtable
define dso_local void @print(%struct.student* nocapture readonly %0) local_unnamed_addr #4 {
  %2 = getelementptr inbounds %struct.student, %struct.student* %0, i64 0, i32 1
  %3 = load %struct.student*, %struct.student** %2, align 8, !tbaa !5
  br label %4

4:                                                ; preds = %4, %1
  %5 = phi %struct.student* [ %3, %1 ], [ %9, %4 ]
  %6 = getelementptr inbounds %struct.student, %struct.student* %5, i64 0, i32 0, i64 0
  %7 = tail call i32 @puts(i8* nonnull dereferenceable(1) %6)
  %8 = getelementptr inbounds %struct.student, %struct.student* %5, i64 0, i32 1
  %9 = load %struct.student*, %struct.student** %8, align 8, !tbaa !5
  %10 = getelementptr inbounds %struct.student, %struct.student* %9, i64 0, i32 1
  %11 = load %struct.student*, %struct.student** %10, align 8, !tbaa !5
  %12 = icmp eq %struct.student* %11, null
  br i1 %12, label %13, label %4, !llvm.loop !12

13:                                               ; preds = %4
  %14 = getelementptr inbounds %struct.student, %struct.student* %9, i64 0, i32 0, i64 0
  %15 = tail call i32 @puts(i8* nonnull dereferenceable(1) %14)
  ret void
}

; Function Attrs: nofree nounwind
declare noundef i32 @puts(i8* nocapture noundef readonly) local_unnamed_addr #5

; Function Attrs: nounwind sspstrong uwtable
define dso_local void @main() local_unnamed_addr #0 {
  %1 = tail call noalias align 16 dereferenceable_or_null(100) i8* @malloc(i64 100) #6
  %2 = bitcast i8* %1 to %struct.student*
  %3 = getelementptr inbounds %struct.student, %struct.student* %2, i64 0, i32 1
  store %struct.student* null, %struct.student** %3, align 16, !tbaa !5
  %4 = getelementptr inbounds %struct.student, %struct.student* %2, i64 0, i32 0, i64 0
  %5 = tail call i32 (i8*, ...) bitcast (i32 (...)* @gets to i32 (i8*, ...)*)(i8* %4) #6
  %6 = tail call i32 @strcmp(i8* noundef nonnull dereferenceable(1) %4, i8* noundef nonnull dereferenceable(4) getelementptr inbounds ([4 x i8], [4 x i8]* @.str, i64 0, i64 0)) #7
  %7 = icmp eq i32 %6, 0
  br i1 %7, label %8, label %10

8:                                                ; preds = %0
  %9 = load %struct.student*, %struct.student** %3, align 16, !tbaa !5
  br label %19

10:                                               ; preds = %0, %10
  %11 = phi %struct.student* [ %13, %10 ], [ %2, %0 ]
  %12 = tail call noalias align 16 dereferenceable_or_null(100) i8* @malloc(i64 100) #6
  %13 = bitcast i8* %12 to %struct.student*
  %14 = getelementptr inbounds %struct.student, %struct.student* %13, i64 0, i32 0, i64 0
  %15 = tail call i32 (i8*, ...) bitcast (i32 (...)* @gets to i32 (i8*, ...)*)(i8* %14) #6
  %16 = getelementptr inbounds %struct.student, %struct.student* %13, i64 0, i32 1
  store %struct.student* %11, %struct.student** %16, align 16, !tbaa !5
  %17 = tail call i32 @strcmp(i8* noundef nonnull dereferenceable(1) %14, i8* noundef nonnull dereferenceable(4) getelementptr inbounds ([4 x i8], [4 x i8]* @.str, i64 0, i64 0)) #7
  %18 = icmp eq i32 %17, 0
  br i1 %18, label %19, label %10, !llvm.loop !10

19:                                               ; preds = %10, %8
  %20 = phi %struct.student* [ %9, %8 ], [ %11, %10 ]
  br label %21

21:                                               ; preds = %19, %21
  %22 = phi %struct.student* [ %26, %21 ], [ %20, %19 ]
  %23 = getelementptr inbounds %struct.student, %struct.student* %22, i64 0, i32 0, i64 0
  %24 = tail call i32 @puts(i8* nonnull dereferenceable(1) %23) #6
  %25 = getelementptr inbounds %struct.student, %struct.student* %22, i64 0, i32 1
  %26 = load %struct.student*, %struct.student** %25, align 8, !tbaa !5
  %27 = getelementptr inbounds %struct.student, %struct.student* %26, i64 0, i32 1
  %28 = load %struct.student*, %struct.student** %27, align 8, !tbaa !5
  %29 = icmp eq %struct.student* %28, null
  br i1 %29, label %30, label %21, !llvm.loop !12

30:                                               ; preds = %21
  %31 = getelementptr inbounds %struct.student, %struct.student* %26, i64 0, i32 0, i64 0
  %32 = tail call i32 @puts(i8* nonnull dereferenceable(1) %31) #6
  ret void
}


!llvm.module.flags = !{!0, !1, !2, !3}
!llvm.ident = !{!4}

!0 = !{i32 1, !"wchar_size", i32 4}
!1 = !{i32 7, !"PIC Level", i32 2}
!2 = !{i32 7, !"PIE Level", i32 2}
!3 = !{i32 7, !"uwtable", i32 1}
!4 = !{!"clang version 13.0.0"}
!5 = !{!6, !9, i64 64}
!6 = !{!"student", !7, i64 0, !9, i64 64}
!7 = !{!"omnipotent char", !8, i64 0}
!8 = !{!"Simple C/C++ TBAA"}
!9 = !{!"any pointer", !7, i64 0}
!10 = distinct !{!10, !11}
!11 = !{!"llvm.loop.mustprogress"}
!12 = distinct !{!12, !11}
